; Function Attrs: mustprogress uwtable
define void @_ZN32pxrInternal_v0_24__pxrReserved__13TraceCategoryC2Ev(ptr noundef nonnull align 8 dereferenceable(48) %0) unnamed_addr #0 align 2 personality ptr @__gxx_personality_v0 {
  %2 = alloca %"class.std::__cxx11::basic_string", align 8
  %3 = alloca %"class.std::allocator.2", align 1
  %4 = getelementptr inbounds i8, ptr %0, i64 8
  store i32 0, ptr %4, align 8
  %5 = getelementptr inbounds i8, ptr %0, i64 16
  store ptr null, ptr %5, align 8
  %6 = getelementptr inbounds i8, ptr %0, i64 24
  store ptr %4, ptr %6, align 8
  %7 = getelementptr inbounds i8, ptr %0, i64 32
  store ptr %4, ptr %7, align 8
  %8 = getelementptr inbounds i8, ptr %0, i64 40
  store i64 0, ptr %8, align 8
  call void @_ZNSaIcEC1Ev(ptr noundef nonnull align 1 dereferenceable(1) %3) #13
  %9 = invoke noundef ptr @_ZNSt7__cxx1112basic_stringIcSt11char_traitsIcESaIcEE13_M_local_dataEv(ptr noundef nonnull align 8 dereferenceable(32) %2)
          to label %.noexc unwind label %13

.noexc:                                           ; preds = %1
  invoke void @_ZNSt7__cxx1112basic_stringIcSt11char_traitsIcESaIcEE12_Alloc_hiderC1EPcRKS3_(ptr noundef nonnull align 8 dereferenceable(8) %2, ptr noundef %9, ptr noundef nonnull align 1 dereferenceable(1) %3)
          to label %.noexc4 unwind label %13

.noexc4:                                          ; preds = %.noexc
  invoke void @_ZNSt7__cxx1112basic_stringIcSt11char_traitsIcESaIcEE12_M_constructIPKcEEvT_S8_St20forward_iterator_tag(ptr noundef nonnull align 8 dereferenceable(32) %2, ptr noundef nonnull @.str.7, ptr noundef nonnull getelementptr inbounds (i8, ptr @.str.7, i64 7))
          to label %_ZNSt7__cxx1112basic_stringIcSt11char_traitsIcESaIcEEC2IS3_EEPKcRKS3_.exit unwind label %10

10:                                               ; preds = %.noexc4
  %11 = landingpad { ptr, i32 }
          cleanup
  call void @_ZNSaIcED2Ev(ptr noundef nonnull align 1 dereferenceable(1) %2) #13
  br label %.body

_ZNSt7__cxx1112basic_stringIcSt11char_traitsIcESaIcEEC2IS3_EEPKcRKS3_.exit: ; preds = %.noexc4
  invoke void @_ZN32pxrInternal_v0_24__pxrReserved__13TraceCategory16RegisterCategoryEjRKNSt7__cxx1112basic_stringIcSt11char_traitsIcESaIcEEE(ptr noundef nonnull align 8 dereferenceable(48) %0, i32 noundef 0, ptr noundef nonnull align 8 dereferenceable(32) %2)
          to label %12 unwind label %15

12:                                               ; preds = %_ZNSt7__cxx1112basic_stringIcSt11char_traitsIcESaIcEEC2IS3_EEPKcRKS3_.exit
  call void @_ZNSt7__cxx1112basic_stringIcSt11char_traitsIcESaIcEED1Ev(ptr noundef nonnull align 8 dereferenceable(32) %2) #13
  call void @_ZNSaIcED1Ev(ptr noundef nonnull align 1 dereferenceable(1) %3) #13
  ret void

13:                                               ; preds = %.noexc, %1
  %14 = landingpad { ptr, i32 }
          cleanup
  br label %.body

15:                                               ; preds = %_ZNSt7__cxx1112basic_stringIcSt11char_traitsIcESaIcEEC2IS3_EEPKcRKS3_.exit
  %16 = landingpad { ptr, i32 }
          cleanup
  call void @_ZNSt7__cxx1112basic_stringIcSt11char_traitsIcESaIcEED1Ev(ptr noundef nonnull align 8 dereferenceable(32) %2) #13
  br label %.body

.body:                                            ; preds = %13, %10, %15
  %.pn = phi { ptr, i32 } [ %16, %15 ], [ %14, %13 ], [ %11, %10 ]
  call void @_ZNSaIcED1Ev(ptr noundef nonnull align 1 dereferenceable(1) %3) #13
  call void @_ZNSt8multimapIjNSt7__cxx1112basic_stringIcSt11char_traitsIcESaIcEEESt4lessIjESaISt4pairIKjS5_EEED2Ev(ptr noundef nonnull align 8 dereferenceable(48) %0) #13
  resume { ptr, i32 } %.pn
}